target datalayout = "e-m:e-p270:32:32-p271:32:32-p272:64:64-i64:64-i128:128-f80:128-n8:16:32:64-S128"
target triple = "x86_64-unknown-linux-gnu"

; Function Attrs: mustprogress nounwind uwtable
define linkonce_odr dso_local noundef float @_ZN7msdfgen3maxIfEET_S1_S1_(float noundef %a, float noundef %b) #2 comdat {
entry:
  %a.addr = alloca float, align 4
  %b.addr = alloca float, align 4
  store float %a, ptr %a.addr, align 4
  store float %b, ptr %b.addr, align 4
  %0 = load float, ptr %a.addr, align 4
  %1 = load float, ptr %b.addr, align 4
  %cmp = fcmp olt float %0, %1
  br i1 %cmp, label %cond.true, label %cond.false

cond.true:                                        ; preds = %entry
  %2 = load float, ptr %b.addr, align 4
  br label %cond.end

cond.false:                                       ; preds = %entry
  %3 = load float, ptr %a.addr, align 4
  br label %cond.end

cond.end:                                         ; preds = %cond.false, %cond.true
  %cond = phi float [ %2, %cond.true ], [ %3, %cond.false ]
  ret float %cond
}

; Function Attrs: mustprogress nounwind uwtable
define linkonce_odr dso_local noundef float @_ZN7msdfgen3minIfEET_S1_S1_(float noundef %a, float noundef %b) #2 comdat {
entry:
  %a.addr = alloca float, align 4
  %b.addr = alloca float, align 4
  store float %a, ptr %a.addr, align 4
  store float %b, ptr %b.addr, align 4
  %0 = load float, ptr %b.addr, align 4
  %1 = load float, ptr %a.addr, align 4
  %cmp = fcmp olt float %0, %1
  br i1 %cmp, label %cond.true, label %cond.false

cond.true:                                        ; preds = %entry
  %2 = load float, ptr %b.addr, align 4
  br label %cond.end

cond.false:                                       ; preds = %entry
  %3 = load float, ptr %a.addr, align 4
  br label %cond.end

cond.end:                                         ; preds = %cond.false, %cond.true
  %cond = phi float [ %2, %cond.true ], [ %3, %cond.false ]
  ret float %cond
}

; Function Attrs: mustprogress uwtable
define linkonce_odr dso_local noundef float @_ZN7msdfgen6medianIfEET_S1_S1_S1_(float noundef %a, float noundef %b, float noundef %c) #0 comdat {
entry:
  %a.addr = alloca float, align 4
  %b.addr = alloca float, align 4
  %c.addr = alloca float, align 4
  store float %a, ptr %a.addr, align 4
  store float %b, ptr %b.addr, align 4
  store float %c, ptr %c.addr, align 4
  %0 = load float, ptr %a.addr, align 4
  %1 = load float, ptr %b.addr, align 4
  %call = call noundef float @_ZN7msdfgen3minIfEET_S1_S1_(float noundef %0, float noundef %1)
  %2 = load float, ptr %a.addr, align 4
  %3 = load float, ptr %b.addr, align 4
  %call1 = call noundef float @_ZN7msdfgen3maxIfEET_S1_S1_(float noundef %2, float noundef %3)
  %4 = load float, ptr %c.addr, align 4
  %call2 = call noundef float @_ZN7msdfgen3minIfEET_S1_S1_(float noundef %call1, float noundef %4)
  %call3 = call noundef float @_ZN7msdfgen3maxIfEET_S1_S1_(float noundef %call, float noundef %call2)
  ret float %call3
}

; Function Attrs: mustprogress uwtable
define internal noundef zeroext i1 @_ZN7msdfgenL19hasDiagonalArtifactINS_22BaseArtifactClassifierEEEbRKT_fPKfS6_S6_S6_(ptr noundef nonnull align 8 dereferenceable(9) %artifactClassifier, float noundef %am, ptr noundef %a, ptr noundef %b, ptr noundef %c, ptr noundef %d) #0 {
entry:
  %retval = alloca i1, align 1
  %artifactClassifier.addr = alloca ptr, align 8
  %am.addr = alloca float, align 4
  %a.addr = alloca ptr, align 8
  %b.addr = alloca ptr, align 8
  %c.addr = alloca ptr, align 8
  %d.addr = alloca ptr, align 8
  %dm = alloca float, align 4
  %abc = alloca [3 x float], align 4
  %l = alloca [3 x float], align 4
  %q = alloca [3 x float], align 4
  %tEx = alloca [3 x double], align 16
  store ptr %artifactClassifier, ptr %artifactClassifier.addr, align 8
  store float %am, ptr %am.addr, align 4
  store ptr %a, ptr %a.addr, align 8
  store ptr %b, ptr %b.addr, align 8
  store ptr %c, ptr %c.addr, align 8
  store ptr %d, ptr %d.addr, align 8
  %0 = load ptr, ptr %d.addr, align 8
  %arrayidx = getelementptr inbounds float, ptr %0, i64 0
  %1 = load float, ptr %arrayidx, align 4
  %2 = load ptr, ptr %d.addr, align 8
  %arrayidx1 = getelementptr inbounds float, ptr %2, i64 1
  %3 = load float, ptr %arrayidx1, align 4
  %4 = load ptr, ptr %d.addr, align 8
  %arrayidx2 = getelementptr inbounds float, ptr %4, i64 2
  %5 = load float, ptr %arrayidx2, align 4
  %call = call noundef float @_ZN7msdfgen6medianIfEET_S1_S1_S1_(float noundef %1, float noundef %3, float noundef %5)
  store float %call, ptr %dm, align 4
  %6 = load float, ptr %am.addr, align 4
  %sub = fsub float %6, 5.000000e-01
  %7 = call float @llvm.fabs.f32(float %sub)
  %8 = load float, ptr %dm, align 4
  %sub3 = fsub float %8, 5.000000e-01
  %9 = call float @llvm.fabs.f32(float %sub3)
  %cmp = fcmp oge float %7, %9
  br i1 %cmp, label %if.then, label %if.end

if.then:                                          ; preds = %entry
  %arrayinit.begin = getelementptr inbounds [3 x float], ptr %abc, i64 0, i64 0
  %10 = load ptr, ptr %a.addr, align 8
  %arrayidx4 = getelementptr inbounds float, ptr %10, i64 0
  %11 = load float, ptr %arrayidx4, align 4
  %12 = load ptr, ptr %b.addr, align 8
  %arrayidx5 = getelementptr inbounds float, ptr %12, i64 0
  %13 = load float, ptr %arrayidx5, align 4
  %sub6 = fsub float %11, %13
  %14 = load ptr, ptr %c.addr, align 8
  %arrayidx7 = getelementptr inbounds float, ptr %14, i64 0
  %15 = load float, ptr %arrayidx7, align 4
  %sub8 = fsub float %sub6, %15
  store float %sub8, ptr %arrayinit.begin, align 4
  %arrayinit.element = getelementptr inbounds float, ptr %arrayinit.begin, i64 1
  %16 = load ptr, ptr %a.addr, align 8
  %arrayidx9 = getelementptr inbounds float, ptr %16, i64 1
  %17 = load float, ptr %arrayidx9, align 4
  %18 = load ptr, ptr %b.addr, align 8
  %arrayidx10 = getelementptr inbounds float, ptr %18, i64 1
  %19 = load float, ptr %arrayidx10, align 4
  %sub11 = fsub float %17, %19
  %20 = load ptr, ptr %c.addr, align 8
  %arrayidx12 = getelementptr inbounds float, ptr %20, i64 1
  %21 = load float, ptr %arrayidx12, align 4
  %sub13 = fsub float %sub11, %21
  store float %sub13, ptr %arrayinit.element, align 4
  %arrayinit.element14 = getelementptr inbounds float, ptr %arrayinit.element, i64 1
  %22 = load ptr, ptr %a.addr, align 8
  %arrayidx15 = getelementptr inbounds float, ptr %22, i64 2
  %23 = load float, ptr %arrayidx15, align 4
  %24 = load ptr, ptr %b.addr, align 8
  %arrayidx16 = getelementptr inbounds float, ptr %24, i64 2
  %25 = load float, ptr %arrayidx16, align 4
  %sub17 = fsub float %23, %25
  %26 = load ptr, ptr %c.addr, align 8
  %arrayidx18 = getelementptr inbounds float, ptr %26, i64 2
  %27 = load float, ptr %arrayidx18, align 4
  %sub19 = fsub float %sub17, %27
  store float %sub19, ptr %arrayinit.element14, align 4
  %arrayinit.begin20 = getelementptr inbounds [3 x float], ptr %l, i64 0, i64 0
  %28 = load ptr, ptr %a.addr, align 8
  %arrayidx21 = getelementptr inbounds float, ptr %28, i64 0
  %29 = load float, ptr %arrayidx21, align 4
  %fneg = fneg float %29
  %arrayidx22 = getelementptr inbounds [3 x float], ptr %abc, i64 0, i64 0
  %30 = load float, ptr %arrayidx22, align 4
  %sub23 = fsub float %fneg, %30
  store float %sub23, ptr %arrayinit.begin20, align 4
  %arrayinit.element24 = getelementptr inbounds float, ptr %arrayinit.begin20, i64 1
  %31 = load ptr, ptr %a.addr, align 8
  %arrayidx25 = getelementptr inbounds float, ptr %31, i64 1
  %32 = load float, ptr %arrayidx25, align 4
  %fneg26 = fneg float %32
  %arrayidx27 = getelementptr inbounds [3 x float], ptr %abc, i64 0, i64 1
  %33 = load float, ptr %arrayidx27, align 4
  %sub28 = fsub float %fneg26, %33
  store float %sub28, ptr %arrayinit.element24, align 4
  %arrayinit.element29 = getelementptr inbounds float, ptr %arrayinit.element24, i64 1
  %34 = load ptr, ptr %a.addr, align 8
  %arrayidx30 = getelementptr inbounds float, ptr %34, i64 2
  %35 = load float, ptr %arrayidx30, align 4
  %fneg31 = fneg float %35
  %arrayidx32 = getelementptr inbounds [3 x float], ptr %abc, i64 0, i64 2
  %36 = load float, ptr %arrayidx32, align 4
  %sub33 = fsub float %fneg31, %36
  store float %sub33, ptr %arrayinit.element29, align 4
  %arrayinit.begin34 = getelementptr inbounds [3 x float], ptr %q, i64 0, i64 0
  %37 = load ptr, ptr %d.addr, align 8
  %arrayidx35 = getelementptr inbounds float, ptr %37, i64 0
  %38 = load float, ptr %arrayidx35, align 4
  %arrayidx36 = getelementptr inbounds [3 x float], ptr %abc, i64 0, i64 0
  %39 = load float, ptr %arrayidx36, align 4
  %add = fadd float %38, %39
  store float %add, ptr %arrayinit.begin34, align 4
  %arrayinit.element37 = getelementptr inbounds float, ptr %arrayinit.begin34, i64 1
  %40 = load ptr, ptr %d.addr, align 8
  %arrayidx38 = getelementptr inbounds float, ptr %40, i64 1
  %41 = load float, ptr %arrayidx38, align 4
  %arrayidx39 = getelementptr inbounds [3 x float], ptr %abc, i64 0, i64 1
  %42 = load float, ptr %arrayidx39, align 4
  %add40 = fadd float %41, %42
  store float %add40, ptr %arrayinit.element37, align 4
  %arrayinit.element41 = getelementptr inbounds float, ptr %arrayinit.element37, i64 1
  %43 = load ptr, ptr %d.addr, align 8
  %arrayidx42 = getelementptr inbounds float, ptr %43, i64 2
  %44 = load float, ptr %arrayidx42, align 4
  %arrayidx43 = getelementptr inbounds [3 x float], ptr %abc, i64 0, i64 2
  %45 = load float, ptr %arrayidx43, align 4
  %add44 = fadd float %44, %45
  store float %add44, ptr %arrayinit.element41, align 4
  %arrayinit.begin45 = getelementptr inbounds [3 x double], ptr %tEx, i64 0, i64 0
  %arrayidx46 = getelementptr inbounds [3 x float], ptr %l, i64 0, i64 0
  %46 = load float, ptr %arrayidx46, align 4
  %conv = fpext float %46 to double
  %mul = fmul double -5.000000e-01, %conv
  %arrayidx47 = getelementptr inbounds [3 x float], ptr %q, i64 0, i64 0
  %47 = load float, ptr %arrayidx47, align 4
  %conv48 = fpext float %47 to double
  %div = fdiv double %mul, %conv48
  store double %div, ptr %arrayinit.begin45, align 8
  %arrayinit.element49 = getelementptr inbounds double, ptr %arrayinit.begin45, i64 1
  %arrayidx50 = getelementptr inbounds [3 x float], ptr %l, i64 0, i64 1
  %48 = load float, ptr %arrayidx50, align 4
  %conv51 = fpext float %48 to double
  %mul52 = fmul double -5.000000e-01, %conv51
  %arrayidx53 = getelementptr inbounds [3 x float], ptr %q, i64 0, i64 1
  %49 = load float, ptr %arrayidx53, align 4
  %conv54 = fpext float %49 to double
  %div55 = fdiv double %mul52, %conv54
  store double %div55, ptr %arrayinit.element49, align 8
  %arrayinit.element56 = getelementptr inbounds double, ptr %arrayinit.element49, i64 1
  %arrayidx57 = getelementptr inbounds [3 x float], ptr %l, i64 0, i64 2
  %50 = load float, ptr %arrayidx57, align 4
  %conv58 = fpext float %50 to double
  %mul59 = fmul double -5.000000e-01, %conv58
  %arrayidx60 = getelementptr inbounds [3 x float], ptr %q, i64 0, i64 2
  %51 = load float, ptr %arrayidx60, align 4
  %conv61 = fpext float %51 to double
  %div62 = fdiv double %mul59, %conv61
  store double %div62, ptr %arrayinit.element56, align 8
  %52 = load ptr, ptr %artifactClassifier.addr, align 8
  %53 = load float, ptr %am.addr, align 4
  %54 = load float, ptr %dm, align 4
  %55 = load ptr, ptr %a.addr, align 8
  %arraydecay = getelementptr inbounds [3 x float], ptr %l, i64 0, i64 0
  %arraydecay63 = getelementptr inbounds [3 x float], ptr %q, i64 0, i64 0
  %56 = load ptr, ptr %a.addr, align 8
  %arrayidx64 = getelementptr inbounds float, ptr %56, i64 1
  %57 = load float, ptr %arrayidx64, align 4
  %58 = load ptr, ptr %a.addr, align 8
  %arrayidx65 = getelementptr inbounds float, ptr %58, i64 0
  %59 = load float, ptr %arrayidx65, align 4
  %sub66 = fsub float %57, %59
  %60 = load ptr, ptr %b.addr, align 8
  %arrayidx67 = getelementptr inbounds float, ptr %60, i64 1
  %61 = load float, ptr %arrayidx67, align 4
  %62 = load ptr, ptr %b.addr, align 8
  %arrayidx68 = getelementptr inbounds float, ptr %62, i64 0
  %63 = load float, ptr %arrayidx68, align 4
  %sub69 = fsub float %61, %63
  %64 = load ptr, ptr %c.addr, align 8
  %arrayidx70 = getelementptr inbounds float, ptr %64, i64 1
  %65 = load float, ptr %arrayidx70, align 4
  %add71 = fadd float %sub69, %65
  %66 = load ptr, ptr %c.addr, align 8
  %arrayidx72 = getelementptr inbounds float, ptr %66, i64 0
  %67 = load float, ptr %arrayidx72, align 4
  %sub73 = fsub float %add71, %67
  %68 = load ptr, ptr %d.addr, align 8
  %arrayidx74 = getelementptr inbounds float, ptr %68, i64 1
  %69 = load float, ptr %arrayidx74, align 4
  %70 = load ptr, ptr %d.addr, align 8
  %arrayidx75 = getelementptr inbounds float, ptr %70, i64 0
  %71 = load float, ptr %arrayidx75, align 4
  %sub76 = fsub float %69, %71
  %arrayidx77 = getelementptr inbounds [3 x double], ptr %tEx, i64 0, i64 0
  %72 = load double, ptr %arrayidx77, align 16
  %arrayidx78 = getelementptr inbounds [3 x double], ptr %tEx, i64 0, i64 1
  %73 = load double, ptr %arrayidx78, align 8
  %call79 = call noundef zeroext i1 @_ZN7msdfgenL24hasDiagonalArtifactInnerINS_22BaseArtifactClassifierEEEbRKT_ffPKfS6_S6_fffdd(ptr noundef nonnull align 8 dereferenceable(9) %52, float noundef %53, float noundef %54, ptr noundef %55, ptr noundef %arraydecay, ptr noundef %arraydecay63, float noundef %sub66, float noundef %sub73, float noundef %sub76, double noundef %72, double noundef %73)
  br i1 %call79, label %lor.end, label %lor.lhs.false

lor.lhs.false:                                    ; preds = %if.then
  %74 = load ptr, ptr %artifactClassifier.addr, align 8
  %75 = load float, ptr %am.addr, align 4
  %76 = load float, ptr %dm, align 4
  %77 = load ptr, ptr %a.addr, align 8
  %arraydecay80 = getelementptr inbounds [3 x float], ptr %l, i64 0, i64 0
  %arraydecay81 = getelementptr inbounds [3 x float], ptr %q, i64 0, i64 0
  %78 = load ptr, ptr %a.addr, align 8
  %arrayidx82 = getelementptr inbounds float, ptr %78, i64 2
  %79 = load float, ptr %arrayidx82, align 4
  %80 = load ptr, ptr %a.addr, align 8
  %arrayidx83 = getelementptr inbounds float, ptr %80, i64 1
  %81 = load float, ptr %arrayidx83, align 4
  %sub84 = fsub float %79, %81
  %82 = load ptr, ptr %b.addr, align 8
  %arrayidx85 = getelementptr inbounds float, ptr %82, i64 2
  %83 = load float, ptr %arrayidx85, align 4
  %84 = load ptr, ptr %b.addr, align 8
  %arrayidx86 = getelementptr inbounds float, ptr %84, i64 1
  %85 = load float, ptr %arrayidx86, align 4
  %sub87 = fsub float %83, %85
  %86 = load ptr, ptr %c.addr, align 8
  %arrayidx88 = getelementptr inbounds float, ptr %86, i64 2
  %87 = load float, ptr %arrayidx88, align 4
  %add89 = fadd float %sub87, %87
  %88 = load ptr, ptr %c.addr, align 8
  %arrayidx90 = getelementptr inbounds float, ptr %88, i64 1
  %89 = load float, ptr %arrayidx90, align 4
  %sub91 = fsub float %add89, %89
  %90 = load ptr, ptr %d.addr, align 8
  %arrayidx92 = getelementptr inbounds float, ptr %90, i64 2
  %91 = load float, ptr %arrayidx92, align 4
  %92 = load ptr, ptr %d.addr, align 8
  %arrayidx93 = getelementptr inbounds float, ptr %92, i64 1
  %93 = load float, ptr %arrayidx93, align 4
  %sub94 = fsub float %91, %93
  %arrayidx95 = getelementptr inbounds [3 x double], ptr %tEx, i64 0, i64 1
  %94 = load double, ptr %arrayidx95, align 8
  %arrayidx96 = getelementptr inbounds [3 x double], ptr %tEx, i64 0, i64 2
  %95 = load double, ptr %arrayidx96, align 16
  %call97 = call noundef zeroext i1 @_ZN7msdfgenL24hasDiagonalArtifactInnerINS_22BaseArtifactClassifierEEEbRKT_ffPKfS6_S6_fffdd(ptr noundef nonnull align 8 dereferenceable(9) %74, float noundef %75, float noundef %76, ptr noundef %77, ptr noundef %arraydecay80, ptr noundef %arraydecay81, float noundef %sub84, float noundef %sub91, float noundef %sub94, double noundef %94, double noundef %95)
  br i1 %call97, label %lor.end, label %lor.rhs

lor.rhs:                                          ; preds = %lor.lhs.false
  %96 = load ptr, ptr %artifactClassifier.addr, align 8
  %97 = load float, ptr %am.addr, align 4
  %98 = load float, ptr %dm, align 4
  %99 = load ptr, ptr %a.addr, align 8
  %arraydecay98 = getelementptr inbounds [3 x float], ptr %l, i64 0, i64 0
  %arraydecay99 = getelementptr inbounds [3 x float], ptr %q, i64 0, i64 0
  %100 = load ptr, ptr %a.addr, align 8
  %arrayidx100 = getelementptr inbounds float, ptr %100, i64 0
  %101 = load float, ptr %arrayidx100, align 4
  %102 = load ptr, ptr %a.addr, align 8
  %arrayidx101 = getelementptr inbounds float, ptr %102, i64 2
  %103 = load float, ptr %arrayidx101, align 4
  %sub102 = fsub float %101, %103
  %104 = load ptr, ptr %b.addr, align 8
  %arrayidx103 = getelementptr inbounds float, ptr %104, i64 0
  %105 = load float, ptr %arrayidx103, align 4
  %106 = load ptr, ptr %b.addr, align 8
  %arrayidx104 = getelementptr inbounds float, ptr %106, i64 2
  %107 = load float, ptr %arrayidx104, align 4
  %sub105 = fsub float %105, %107
  %108 = load ptr, ptr %c.addr, align 8
  %arrayidx106 = getelementptr inbounds float, ptr %108, i64 0
  %109 = load float, ptr %arrayidx106, align 4
  %add107 = fadd float %sub105, %109
  %110 = load ptr, ptr %c.addr, align 8
  %arrayidx108 = getelementptr inbounds float, ptr %110, i64 2
  %111 = load float, ptr %arrayidx108, align 4
  %sub109 = fsub float %add107, %111
  %112 = load ptr, ptr %d.addr, align 8
  %arrayidx110 = getelementptr inbounds float, ptr %112, i64 0
  %113 = load float, ptr %arrayidx110, align 4
  %114 = load ptr, ptr %d.addr, align 8
  %arrayidx111 = getelementptr inbounds float, ptr %114, i64 2
  %115 = load float, ptr %arrayidx111, align 4
  %sub112 = fsub float %113, %115
  %arrayidx113 = getelementptr inbounds [3 x double], ptr %tEx, i64 0, i64 2
  %116 = load double, ptr %arrayidx113, align 16
  %arrayidx114 = getelementptr inbounds [3 x double], ptr %tEx, i64 0, i64 0
  %117 = load double, ptr %arrayidx114, align 16
  %call115 = call noundef zeroext i1 @_ZN7msdfgenL24hasDiagonalArtifactInnerINS_22BaseArtifactClassifierEEEbRKT_ffPKfS6_S6_fffdd(ptr noundef nonnull align 8 dereferenceable(9) %96, float noundef %97, float noundef %98, ptr noundef %99, ptr noundef %arraydecay98, ptr noundef %arraydecay99, float noundef %sub102, float noundef %sub109, float noundef %sub112, double noundef %116, double noundef %117)
  br label %lor.end

lor.end:                                          ; preds = %lor.rhs, %lor.lhs.false, %if.then
  %118 = phi i1 [ true, %lor.lhs.false ], [ true, %if.then ], [ %call115, %lor.rhs ]
  store i1 %118, ptr %retval, align 1
  br label %return

if.end:                                           ; preds = %entry
  store i1 false, ptr %retval, align 1
  br label %return

return:                                           ; preds = %if.end, %lor.end
  %119 = load i1, ptr %retval, align 1
  ret i1 %119
}